; Function Attrs: inlinehint mustprogress nounwind optsize uwtable
define internal noundef nonnull ptr @"_ZZN8nanobind6detail11func_createILb0ELb1EZL30nanobind_init_test_ndarray_extRNS_7module_EE4$_36vJRNS_7ndarrayIJfNS0_5shapeIJLl10EEEENS_6device3cpuEEEEEJLm0EEJNS_5scopeENS_4nameEEEEP7_objectOT1_PFT2_DpT3_ESt16integer_sequenceImJXspT4_EEEDpRKT5_ENUlPvPSF_PhNS_9rv_policyEPNS0_12cleanup_listEE_8__invokeEST_SU_SV_SW_SY_"(ptr readnone captures(none) %0, ptr noundef readonly captures(none) %1, ptr noundef readonly captures(none) %2, i32 %3, ptr noundef %4) #8 align 2 personality ptr @__gxx_personality_v0 {
  %6 = alloca %"struct.nanobind::detail::tuple.358", align 8
  call void @llvm.lifetime.start.p0(i64 56, ptr nonnull %6) #22
  call void @llvm.memset.p0.i64(ptr noundef nonnull align 8 dereferenceable(56) %6, i8 0, i64 56, i1 false)
  %7 = load ptr, ptr %1, align 8, !tbaa !93
  %8 = load i8, ptr %2, align 1, !tbaa !60
  %9 = call noundef zeroext i1 @_ZN8nanobind6detail11type_casterINS_7ndarrayIJfNS0_5shapeIJLl10EEEENS_6device3cpuEEEEiE11from_pythonENS_6handleEhPNS0_12cleanup_listE(ptr noundef nonnull align 8 dereferenceable(56) %6, ptr %7, i8 noundef zeroext %8, ptr noundef %4) #23
  br i1 %9, label %10, label %"_ZZN8nanobind6detail11func_createILb0ELb1EZL30nanobind_init_test_ndarray_extRNS_7module_EE4$_36vJRNS_7ndarrayIJfNS0_5shapeIJLl10EEEENS_6device3cpuEEEEEJLm0EEJNS_5scopeENS_4nameEEEEP7_objectOT1_PFT2_DpT3_ESt16integer_sequenceImJXspT4_EEEDpRKT5_ENKUlPvPSF_PhNS_9rv_policyEPNS0_12cleanup_listEE_clEST_SU_SV_SW_SY_.exit"

10:                                               ; preds = %5
  %11 = getelementptr inbounds nuw i8, ptr %6, i64 8
  %12 = load ptr, ptr %11, align 8, !tbaa !188
  %13 = getelementptr inbounds nuw i8, ptr %6, i64 40
  %14 = load ptr, ptr %13, align 8, !tbaa !190
  %15 = load i64, ptr %14, align 8, !tbaa !67
  %16 = getelementptr inbounds nuw i8, ptr %6, i64 48
  %17 = load i64, ptr %16, align 8, !tbaa !191
  %factor.op.mul.i = shl i64 %15, 2
  %18 = getelementptr i8, ptr %12, i64 %17
  br label %19

19:                                               ; preds = %19, %10
  %.01.i = phi i64 [ 0, %10 ], [ %22, %19 ]
  %20 = uitofp nneg i64 %.01.i to float
  %.reass.i = mul i64 %factor.op.mul.i, %.01.i
  %21 = getelementptr i8, ptr %18, i64 %.reass.i
  store float %20, ptr %21, align 4, !tbaa !192
  %22 = add nuw nsw i64 %.01.i, 1
  %exitcond.not.i = icmp eq i64 %22, 10
  br i1 %exitcond.not.i, label %"_ZZL30nanobind_init_test_ndarray_extRN8nanobind7module_EENK4$_36clERNS_7ndarrayIJfNS_6detail5shapeIJLl10EEEENS_6device3cpuEEEE.exit", label %19, !llvm.loop !194

"_ZZL30nanobind_init_test_ndarray_extRN8nanobind7module_EENK4$_36clERNS_7ndarrayIJfNS_6detail5shapeIJLl10EEEENS_6device3cpuEEEE.exit": ; preds = %19
  %23 = load i64, ptr @_Py_NoneStruct, align 8, !tbaa !65
  %24 = add nsw i64 %23, 1
  store i64 %24, ptr @_Py_NoneStruct, align 8, !tbaa !65
  br label %"_ZZN8nanobind6detail11func_createILb0ELb1EZL30nanobind_init_test_ndarray_extRNS_7module_EE4$_36vJRNS_7ndarrayIJfNS0_5shapeIJLl10EEEENS_6device3cpuEEEEEJLm0EEJNS_5scopeENS_4nameEEEEP7_objectOT1_PFT2_DpT3_ESt16integer_sequenceImJXspT4_EEEDpRKT5_ENKUlPvPSF_PhNS_9rv_policyEPNS0_12cleanup_listEE_clEST_SU_SV_SW_SY_.exit"

"_ZZN8nanobind6detail11func_createILb0ELb1EZL30nanobind_init_test_ndarray_extRNS_7module_EE4$_36vJRNS_7ndarrayIJfNS0_5shapeIJLl10EEEENS_6device3cpuEEEEEJLm0EEJNS_5scopeENS_4nameEEEEP7_objectOT1_PFT2_DpT3_ESt16integer_sequenceImJXspT4_EEEDpRKT5_ENKUlPvPSF_PhNS_9rv_policyEPNS0_12cleanup_listEE_clEST_SU_SV_SW_SY_.exit": ; preds = %5, %"_ZZL30nanobind_init_test_ndarray_extRN8nanobind7module_EENK4$_36clERNS_7ndarrayIJfNS_6detail5shapeIJLl10EEEENS_6device3cpuEEEE.exit"
  %.0.i = phi ptr [ @_Py_NoneStruct, %"_ZZL30nanobind_init_test_ndarray_extRN8nanobind7module_EENK4$_36clERNS_7ndarrayIJfNS_6detail5shapeIJLl10EEEENS_6device3cpuEEEE.exit" ], [ inttoptr (i64 1 to ptr), %5 ]
  %25 = load ptr, ptr %6, align 8, !tbaa !195
  call void @_ZN8nanobind6detail15ndarray_dec_refEPNS0_14ndarray_handleE(ptr noundef %25) #23
  call void @llvm.lifetime.end.p0(i64 56, ptr nonnull %6) #22
  ret ptr %.0.i
}